; Function Attrs: mustprogress uwtable
define hidden noundef zeroext i1 @_ZNK4cvc58internal6theory11TheoryModel16isBaseModelValueENS0_12NodeTemplateILb0EEE(ptr nocapture noundef nonnull readnone align 8 dereferenceable(904) %this, ptr noundef nonnull %n) local_unnamed_addr #3 align 2 {
entry:
  %call = tail call noundef zeroext i1 @_ZNK4cvc58internal12NodeTemplateILb0EE7isConstEv(ptr noundef nonnull align 8 dereferenceable(8) %n)
  br i1 %call, label %return, label %if.end

if.end:                                           ; preds = %entry
  %0 = load ptr, ptr %n, align 8
  %d_kind.i = getelementptr inbounds i8, ptr %0, i64 8
  %bf.load.i = load i16, ptr %d_kind.i, align 8
  %bf.clear.i = and i16 %bf.load.i, 1023
  %switch.tableidx = add nsw i16 %bf.clear.i, -11
  %1 = icmp ult i16 %switch.tableidx, 59
  br i1 %1, label %switch.lookup, label %return

switch.lookup:                                    ; preds = %if.end
  %switch.cast = zext nneg i16 %switch.tableidx to i59
  %switch.downshift = lshr i59 -288230376151678975, %switch.cast
  %2 = and i59 %switch.downshift, 1
  %switch.masked = icmp ne i59 %2, 0
  br label %return

return:                                           ; preds = %if.end, %switch.lookup, %entry
  %retval.0 = phi i1 [ true, %entry ], [ %switch.masked, %switch.lookup ], [ false, %if.end ]
  ret i1 %retval.0
}